target datalayout = "e-m:e-p270:32:32-p271:32:32-p272:64:64-i64:64-i128:128-f80:128-n8:16:32:64-S128"
target triple = "x86_64-pc-linux-gnu"

%struct.AVCodecContext = type { ptr, i32, i32, ptr, i32, i32, ptr, ptr, ptr, i64, i32, i32, ptr, i32, %struct.AVRational, %struct.AVRational, %struct.AVRational, i32, i32, i32, i32, i32, %struct.AVRational, i32, i32, i32, i32, i32, i32, i32, i32, i32, i32, i32, ptr, ptr, i32, float, float, float, float, float, float, float, float, float, i32, i32, i32, i32, i32, i32, i32, i32, i32, i32, i32, i32, ptr, ptr, ptr, i32, i32, i32, i32, i32, i32, i32, i32, i32, i32, %struct.AVChannelLayout, i32, i32, i32, i32, i32, i32, i32, i32, ptr, i32, i32, i32, float, float, i32, i32, i32, i32, i32, ptr, i64, i64, float, float, i32, i32, ptr, ptr, i32, i32, i32, i32, i32, ptr, ptr, ptr, ptr, i32, i32, [8 x i64], i32, i32, i32, i32, i32, i32, i32, ptr, ptr, i32, i32, i32, i32, i32, i32, i32, i32, i32, i32, ptr, ptr, i32, i32, ptr, ptr, ptr, ptr, i32, i32, i64, i32, i32, i64, ptr, i64, ptr, i32, ptr, i32 }
%struct.AVRational = type { i32, i32 }
%struct.AVChannelLayout = type { i32, i32, %union.anon, ptr }
%union.anon = type { i64 }
%struct.VP8Context = type { ptr, ptr, i32, i32, [4 x ptr], [4 x ptr], ptr, ptr, i16, i16, i64, i64, i8, i8, i8, i8, %struct.VP8mvbounds, [4 x i8], [3 x i32], %struct.anon, %struct.anon.0, ptr, ptr, [4 x i8], [4 x %struct.anon.1], %struct.anon.2, %struct.anon.3, ptr, ptr, %struct.VPXRangeCoder, %struct.anon.4, i32, [2 x %struct.anon.5], ptr, i32, i32, i32, i32, i32, i32, [8 x %struct.VPXRangeCoder], [8 x i32], %struct.VideoDSPContext, %struct.VP8DSPContext, %struct.H264PredContext, [3 x [3 x [3 x ptr]]], [5 x %struct.VP8Frame], i8, i8, i32, i32, ptr, ptr, [2 x [2 x i16]], [4 x i8], [4 x i8], [4 x [3 x i8]], [4 x [4 x i8]] }
%struct.VP8mvbounds = type { %struct.VP8intmv, %struct.VP8intmv }
%struct.VP8intmv = type { i32, i32 }
%struct.anon = type { i8, i8, i8, i8, [4 x i8], [4 x i8] }
%struct.anon.0 = type { i8, i8, i8 }
%struct.anon.1 = type { [2 x i16], [2 x i16], [2 x i16] }
%struct.anon.2 = type { i32, i32, i32, i32, i32, i32 }
%struct.anon.3 = type { i8, i8, [8 x i8], [4 x i8] }
%struct.VPXRangeCoder = type { i32, i32, ptr, ptr, i32, i32 }
%struct.anon.4 = type { ptr, i32, i32, i32 }
%struct.anon.5 = type { [3 x i8], i8, i8, i8, i8, [4 x i8], [3 x i8], [4 x [16 x [3 x [11 x i8]]]], [2 x [19 x i8]], [16 x i8] }
%struct.VideoDSPContext = type { ptr, ptr }
%struct.VP8DSPContext = type { ptr, ptr, ptr, ptr, ptr, ptr, ptr, ptr, ptr, ptr, ptr, ptr, ptr, ptr, ptr, ptr, [3 x [3 x [3 x ptr]]], [3 x [3 x [3 x ptr]]] }
%struct.H264PredContext = type { [15 x ptr], [12 x ptr], [11 x ptr], [9 x ptr], [2 x ptr], [2 x ptr], [2 x ptr], [3 x ptr], [3 x ptr] }
%struct.VP8Frame = type { %struct.ProgressFrame, ptr, ptr }
%struct.ProgressFrame = type { ptr, ptr }

; Function Attrs: cold nounwind optsize uwtable
define internal i32 @vp7_decode_init(ptr noundef %0) #0 {
  %2 = alloca ptr, align 8
  %3 = alloca ptr, align 8
  store ptr %0, ptr %2, align 8, !tbaa !4
  call void @llvm.lifetime.start.p0(i64 8, ptr %3) #12
  %4 = load ptr, ptr %2, align 8, !tbaa !4
  %5 = getelementptr inbounds nuw %struct.AVCodecContext, ptr %4, i32 0, i32 6
  %6 = load ptr, ptr %5, align 8, !tbaa !11
  store ptr %6, ptr %3, align 8, !tbaa !30
  %7 = load ptr, ptr %2, align 8, !tbaa !4
  call void @vp78_decode_init(ptr noundef %7) #11
  %8 = load ptr, ptr %3, align 8, !tbaa !30
  %9 = getelementptr inbounds nuw %struct.VP8Context, ptr %8, i32 0, i32 44
  call void @ff_h264_pred_init(ptr noundef %9, i32 noundef 179, i32 noundef 8, i32 noundef 1)
  %10 = load ptr, ptr %3, align 8, !tbaa !30
  %11 = getelementptr inbounds nuw %struct.VP8Context, ptr %10, i32 0, i32 43
  call void @ff_vp7dsp_init(ptr noundef %11)
  %12 = load ptr, ptr %3, align 8, !tbaa !30
  %13 = getelementptr inbounds nuw %struct.VP8Context, ptr %12, i32 0, i32 51
  store ptr @vp7_decode_mb_row_no_filter, ptr %13, align 8, !tbaa !121
  %14 = load ptr, ptr %3, align 8, !tbaa !30
  %15 = getelementptr inbounds nuw %struct.VP8Context, ptr %14, i32 0, i32 52
  store ptr @vp7_filter_mb_row, ptr %15, align 8, !tbaa !122
  call void @llvm.lifetime.end.p0(i64 8, ptr %3) #12
  ret i32 0
}